; Function Attrs: mustprogress nounwind uwtable
define dso_local noundef range(i32 4, 1) i32 @_ZNK4llvm3pdb21PDBStringTableBuilder22calculateHashTableSizeEv(ptr noundef nonnull align 8 dereferenceable(72) %0) local_unnamed_addr #1 align 2 {
  %2 = tail call noundef i32 @_ZNK4llvm8codeview26DebugStringTableSubsection4sizeEv(ptr noundef nonnull align 8 dereferenceable(68) %0) #11
  br label %_ZSt7advanceIPKSt4pairIjjElEvRT_T0_.exit.i.i.i.i

_ZSt7advanceIPKSt4pairIjjElEvRT_T0_.exit.i.i.i.i: ; preds = %_ZSt7advanceIPKSt4pairIjjElEvRT_T0_.exit.i.i.i.i, %1
  %.017.i.i.i.i = phi ptr [ @_ZZL18computeBucketCountjE16StringsToBuckets, %1 ], [ %.1.i.i.i.i, %_ZSt7advanceIPKSt4pairIjjElEvRT_T0_.exit.i.i.i.i ]
  %.01116.i.i.i.i = phi i64 [ 52, %1 ], [ %.112.i.i.i.i, %_ZSt7advanceIPKSt4pairIjjElEvRT_T0_.exit.i.i.i.i ]
  %3 = lshr i64 %.01116.i.i.i.i, 1
  %4 = getelementptr inbounds %"struct.std::pair.2", ptr %.017.i.i.i.i, i64 %3
  %5 = load i32, ptr %4, align 4
  %6 = icmp ult i32 %5, %2
  %7 = getelementptr inbounds i8, ptr %4, i64 8
  %8 = xor i64 %3, -1
  %9 = add nsw i64 %.01116.i.i.i.i, %8
  %.112.i.i.i.i = select i1 %6, i64 %9, i64 %3
  %.1.i.i.i.i = select i1 %6, ptr %7, ptr %.017.i.i.i.i
  %10 = icmp sgt i64 %.112.i.i.i.i, 0
  br i1 %10, label %_ZSt7advanceIPKSt4pairIjjElEvRT_T0_.exit.i.i.i.i, label %_ZL18computeBucketCountj.exit, !llvm.loop !4

_ZL18computeBucketCountj.exit:                    ; preds = %_ZSt7advanceIPKSt4pairIjjElEvRT_T0_.exit.i.i.i.i
  %11 = getelementptr inbounds nuw i8, ptr %.1.i.i.i.i, i64 4
  %12 = load i32, ptr %11, align 4
  %13 = shl i32 %12, 2
  %14 = add i32 %13, 4
  ret i32 %14
}